target datalayout = "e-m:e-p270:32:32-p271:32:32-p272:64:64-i64:64-i128:128-f80:128-n8:16:32:64-S128"
target triple = "x86_64-pc-linux-gnu"

@.str = private unnamed_addr constant [35 x i8] c"../openssl/crypto/rand/prov_seed.c\00", align 1

; Function Attrs: nounwind uwtable
define void @ossl_rand_cleanup_user_entropy(ptr noundef %0, ptr noundef %1, i64 noundef %2) #0 {
  %4 = alloca ptr, align 8
  %5 = alloca ptr, align 8
  %6 = alloca i64, align 8
  %7 = alloca ptr, align 8
  store ptr %0, ptr %4, align 8, !tbaa !3
  store ptr %1, ptr %5, align 8, !tbaa !16
  store i64 %2, ptr %6, align 8, !tbaa !12
  call void @llvm.lifetime.start.p0(i64 8, ptr %7) #3
  %8 = load ptr, ptr %4, align 8, !tbaa !3
  %9 = call ptr @ossl_rand_get0_seed_noncreating(ptr noundef %8)
  store ptr %9, ptr %7, align 8, !tbaa !18
  %10 = load ptr, ptr %7, align 8, !tbaa !18
  %11 = icmp ne ptr %10, null
  br i1 %11, label %12, label %20

12:                                               ; preds = %3
  %13 = load ptr, ptr %7, align 8, !tbaa !18
  %14 = call i32 @evp_rand_can_seed(ptr noundef %13)
  %15 = icmp ne i32 %14, 0
  br i1 %15, label %16, label %20

16:                                               ; preds = %12
  %17 = load ptr, ptr %7, align 8, !tbaa !18
  %18 = load ptr, ptr %5, align 8, !tbaa !16
  %19 = load i64, ptr %6, align 8, !tbaa !12
  call void @evp_rand_clear_seed(ptr noundef %17, ptr noundef %18, i64 noundef %19)
  br label %23

20:                                               ; preds = %12, %3
  %21 = load ptr, ptr %5, align 8, !tbaa !16
  %22 = load i64, ptr %6, align 8, !tbaa !12
  call void @CRYPTO_secure_clear_free(ptr noundef %21, i64 noundef %22, ptr noundef @.str, i32 noundef 71)
  br label %23

23:                                               ; preds = %20, %16
  call void @llvm.lifetime.end.p0(i64 8, ptr %7) #3
  ret void
}