; Function Attrs: nounwind uwtable
define void @ossl_rand_cleanup_user_entropy(ptr noundef %0, ptr noundef %1, i64 noundef %2) local_unnamed_addr #0 {
  %4 = tail call ptr @ossl_rand_get0_seed_noncreating(ptr noundef %0) #2
  %.not = icmp eq ptr %4, null
  br i1 %.not, label %8, label %5

5:                                                ; preds = %3
  %6 = tail call i32 @evp_rand_can_seed(ptr noundef nonnull %4) #2
  %.not7 = icmp eq i32 %6, 0
  br i1 %.not7, label %8, label %7

7:                                                ; preds = %5
  tail call void @evp_rand_clear_seed(ptr noundef nonnull %4, ptr noundef %1, i64 noundef %2) #2
  br label %9

8:                                                ; preds = %5, %3
  tail call void @CRYPTO_secure_clear_free(ptr noundef %1, i64 noundef %2, ptr noundef nonnull @.str, i32 noundef 71) #2
  br label %9

9:                                                ; preds = %8, %7
  ret void
}